; Function Attrs: nounwind uwtable
define noundef ptr @Cec3_ManDeriveCex(ptr noundef readonly captures(none) %0, i32 noundef %1, i32 noundef %2) local_unnamed_addr #2 {
  %4 = getelementptr i8, ptr %0, i64 64
  %.val25 = load ptr, ptr %4, align 8, !tbaa !56
  %5 = getelementptr i8, ptr %.val25, i64 4
  %.val25.val = load i32, ptr %5, align 4, !tbaa !57
  %6 = tail call ptr @Abc_CexAlloc(i32 noundef 0, i32 noundef %.val25.val, i32 noundef 1) #22
  store i32 %1, ptr %6, align 4, !tbaa !67
  %7 = icmp eq i32 %2, -1
  br i1 %7, label %.critedge, label %.preheader

.preheader:                                       ; preds = %3
  %8 = load ptr, ptr %4, align 8, !tbaa !56
  %9 = getelementptr i8, ptr %8, i64 4
  %.val2026 = load i32, ptr %9, align 4, !tbaa !57
  %10 = icmp sgt i32 %.val2026, 0
  br i1 %10, label %.lr.ph, label %.critedge

.lr.ph:                                           ; preds = %.preheader
  %11 = getelementptr i8, ptr %8, i64 8
  %.val22.val = load ptr, ptr %11, align 8, !tbaa !33
  %12 = getelementptr i8, ptr %0, i64 816
  %13 = getelementptr i8, ptr %0, i64 832
  %14 = ashr i32 %2, 5
  %15 = sext i32 %14 to i64
  %16 = and i32 %2, 31
  %17 = shl nuw i32 1, %16
  %18 = getelementptr inbounds nuw i8, ptr %6, i64 20
  br label %19

19:                                               ; preds = %.lr.ph, %39
  %.val2030 = phi i32 [ %.val2026, %.lr.ph ], [ %.val20, %39 ]
  %indvars.iv = phi i64 [ 0, %.lr.ph ], [ %indvars.iv.next, %39 ]
  %20 = getelementptr inbounds nuw i32, ptr %.val22.val, i64 %indvars.iv
  %21 = load i32, ptr %20, align 4, !tbaa !34
  %.not = icmp eq i32 %21, 0
  br i1 %.not, label %.critedge, label %22

22:                                               ; preds = %19
  %.val23 = load i32, ptr %12, align 8, !tbaa !58
  %.val24 = load ptr, ptr %13, align 8, !tbaa !59
  %23 = getelementptr i8, ptr %.val24, i64 8
  %.val24.val = load ptr, ptr %23, align 8, !tbaa !60
  %24 = mul nsw i32 %.val23, %21
  %25 = sext i32 %24 to i64
  %26 = getelementptr inbounds i64, ptr %.val24.val, i64 %25
  %27 = getelementptr inbounds i32, ptr %26, i64 %15
  %28 = load i32, ptr %27, align 4, !tbaa !34
  %29 = and i32 %28, %17
  %.not19 = icmp eq i32 %29, 0
  br i1 %.not19, label %39, label %30

30:                                               ; preds = %22
  %31 = trunc nuw nsw i64 %indvars.iv to i32
  %32 = and i32 %31, 31
  %33 = shl nuw i32 1, %32
  %34 = lshr i64 %indvars.iv, 5
  %35 = and i64 %34, 134217727
  %36 = getelementptr inbounds nuw i32, ptr %18, i64 %35
  %37 = load i32, ptr %36, align 4, !tbaa !34
  %38 = or i32 %37, %33
  store i32 %38, ptr %36, align 4, !tbaa !34
  %.val20.pre = load i32, ptr %9, align 4, !tbaa !57
  br label %39

39:                                               ; preds = %22, %30
  %.val20 = phi i32 [ %.val2030, %22 ], [ %.val20.pre, %30 ]
  %indvars.iv.next = add nuw nsw i64 %indvars.iv, 1
  %40 = sext i32 %.val20 to i64
  %41 = icmp slt i64 %indvars.iv.next, %40
  br i1 %41, label %19, label %.critedge, !llvm.loop !69

.critedge:                                        ; preds = %39, %19, %.preheader, %3
  ret ptr %6
}